; Function Attrs: mustprogress uwtable
define hidden void @_ZNK5ceres8internal10CudaVector6CopyToEPN5Eigen6MatrixIdLin1ELi1ELi0ELin1ELi1EEE(ptr noundef nonnull align 8 dereferenceable(48) %0, ptr noundef %1) local_unnamed_addr #0 align 2 personality ptr @__gxx_personality_v0 {
  %3 = alloca %"class.google::LogMessageFatal", align 8
  %.not = icmp eq ptr %1, null
  br i1 %.not, label %4, label %.critedge

4:                                                ; preds = %2
  call void @_ZN6google15LogMessageFatalC1EPKci(ptr noundef nonnull align 8 dereferenceable(96) %3, ptr noundef nonnull @.str.3, i32 noundef 129)
  %5 = invoke noundef nonnull align 8 dereferenceable(8) ptr @_ZN6google10LogMessage6streamEv(ptr noundef nonnull align 8 dereferenceable(96) %3)
          to label %6 unwind label %9

6:                                                ; preds = %4
  %7 = invoke noundef nonnull align 8 dereferenceable(8) ptr @_ZStlsISt11char_traitsIcEERSt13basic_ostreamIcT_ES5_PKc(ptr noundef nonnull align 8 dereferenceable(8) %5, ptr noundef nonnull @.str.11)
          to label %8 unwind label %9

8:                                                ; preds = %6
  call void @_ZN6google15LogMessageFatalD1Ev(ptr noundef nonnull align 8 dereferenceable(96) %3) #12
  unreachable

9:                                                ; preds = %6, %4
  %10 = landingpad { ptr, i32 }
          cleanup
  call void @_ZN6google15LogMessageFatalD1Ev(ptr noundef nonnull align 8 dereferenceable(96) %3) #12
  unreachable

.critedge:                                        ; preds = %2
  %11 = load i32, ptr %0, align 8
  %12 = sext i32 %11 to i64
  tail call void @_ZN5Eigen12DenseStorageIdLin1ELin1ELi1ELi0EE6resizeElll(ptr noundef nonnull align 8 dereferenceable(16) %1, i64 noundef %12, i64 noundef %12, i64 noundef 1)
  %13 = getelementptr inbounds i8, ptr %0, i64 16
  %14 = load ptr, ptr %1, align 8
  %15 = load i32, ptr %0, align 8
  %16 = sext i32 %15 to i64
  tail call void @_ZNK5ceres8internal10CudaBufferIdE9CopyToCpuEPdm(ptr noundef nonnull align 8 dereferenceable(24) %13, ptr noundef %14, i64 noundef %16)
  ret void
}